(lp1
(dp2
Vfield
p3
Vp_ns
p4
sVvalue
p5
F0.050000000000000003
sVop
p6
V<=
p7
sa(dp8
Vfield
p9
Vreliability_nm1_a
p10
sVvalue
p11
(lp12
F0.01
aI1
asVop
p13
Vbetween
p14
sa(dp15
Vfield
p16
Vreliability_nm1_b
p17
sVvalue
p18
(lp19
F0.01
aI1
asVop
p20
Vbetween
p21
sa(dp22
Vfield
p23
Vreliability_nm1_c
p24
sVvalue
p25
(lp26
F0.01
aI1
asVop
p27
Vbetween
p28
sa(dp29
Vfield
p30
Vreliability_nm2
p31
sVvalue
p32
(lp33
F0.01
aI1
asVop
p34
Vbetween
p35
sa(dp36
Vfield
p37
Vreliability_nm3
p38
sVvalue
p39
(lp40
F0.01
aI1
asVop
p41
Vbetween
p42
sa(dp43
Vfield
p44
Vrf_chi2_lsn
p45
sVvalue
p46
F0.050000000000000003
sVop
p47
V<=
p48
sa(dp49
Vfield
p50
Varea
p51
sVvalue
p52
(lp53
VVISp
p54
asVop
p55
Vin
p56
sa(dp57
Vfield
p58
Vimaging_depth
p59
sVvalue
p60
(lp61
I175
asVop
p62
Vin
p63
sa(dp64
Vfield
p65
Vall_stim
p66
sVvalue
p67
I01
sVop
p68
Vis
p69
sa.